; Function Attrs: mustprogress nofree norecurse nosync nounwind willreturn memory(read, inaccessiblemem: none) uwtable
define dso_local ptr @pgstat_get_kind_info(i32 noundef %0) local_unnamed_addr #6 {
  %2 = add i32 %0, -1
  %3 = icmp ult i32 %2, 12
  br i1 %3, label %4, label %7

4:                                                ; preds = %1
  %5 = zext nneg i32 %0 to i64
  %6 = getelementptr inbounds nuw [13 x %struct.PgStat_KindInfo], ptr @pgstat_kind_builtin_infos, i64 0, i64 %5
  br label %17

7:                                                ; preds = %1
  %8 = add i32 %0, -128
  %9 = icmp ult i32 %8, 129
  br i1 %9, label %10, label %17

10:                                               ; preds = %7
  %11 = load ptr, ptr @pgstat_kind_custom_infos, align 8
  %12 = icmp eq ptr %11, null
  br i1 %12, label %17, label %13

13:                                               ; preds = %10
  %14 = zext nneg i32 %8 to i64
  %15 = getelementptr inbounds nuw ptr, ptr %11, i64 %14
  %16 = load ptr, ptr %15, align 8
  br label %17

17:                                               ; preds = %13, %7, %10, %4
  %.0 = phi ptr [ %6, %4 ], [ null, %10 ], [ null, %7 ], [ %16, %13 ]
  ret ptr %.0
}